; Function Attrs: mustprogress nounwind uwtable
define noundef nonnull ptr @_ZN4toku8treenode21find_child_at_extremeEiPPS0_(ptr noundef nonnull align 8 dereferenceable(202) %0, i32 noundef %1, ptr noundef writeonly captures(none) %2) local_unnamed_addr #0 align 2 {
  %4 = icmp sgt i32 %1, 0
  br i1 %4, label %5, label %8

5:                                                ; preds = %3
  %6 = getelementptr inbounds nuw i8, ptr %0, i64 176
  %7 = load ptr, ptr %6, align 8, !tbaa !26
  %.not.i = icmp eq ptr %7, null
  br i1 %.not.i, label %common.ret21, label %_ZN4toku8treenode9child_ptr10get_lockedEv.exit

8:                                                ; preds = %3
  %9 = getelementptr inbounds nuw i8, ptr %0, i64 160
  %10 = load ptr, ptr %9, align 8, !tbaa !26
  %.not.i10 = icmp eq ptr %10, null
  br i1 %.not.i10, label %common.ret21, label %_ZN4toku8treenode9child_ptr10get_lockedEv.exit

common.ret21:                                     ; preds = %8, %5, %_ZN4toku8treenode9child_ptr10get_lockedEv.exit
  %common.ret21.op = phi ptr [ %19, %_ZN4toku8treenode9child_ptr10get_lockedEv.exit ], [ %0, %5 ], [ %0, %8 ]
  ret ptr %common.ret21.op

_ZN4toku8treenode9child_ptr10get_lockedEv.exit:   ; preds = %8, %5
  %.sink20 = phi ptr [ %7, %5 ], [ %10, %8 ]
  %.sink.in = phi ptr [ %6, %5 ], [ %9, %8 ]
  %.sink14 = phi i64 [ 184, %5 ], [ 168, %8 ]
  %11 = tail call i32 @pthread_mutex_lock(ptr noundef nonnull align 8 dereferenceable(202) %.sink20) #17
  %.sink = load ptr, ptr %.sink.in, align 8, !tbaa !26
  %12 = getelementptr inbounds nuw i8, ptr %.sink, i64 168
  %13 = load i32, ptr %12, align 8, !tbaa !28
  %14 = getelementptr inbounds nuw i8, ptr %.sink, i64 184
  %15 = load i32, ptr %14, align 8, !tbaa !29
  %16 = tail call i32 @llvm.umax.i32(i32 %13, i32 %15)
  %17 = add i32 %16, 1
  %18 = getelementptr inbounds nuw i8, ptr %0, i64 %.sink14
  store i32 %17, ptr %18, align 8, !tbaa !27
  store ptr %0, ptr %2, align 8, !tbaa !52
  %19 = tail call noundef ptr @_ZN4toku8treenode21find_child_at_extremeEiPPS0_(ptr noundef nonnull align 8 dereferenceable(202) %.sink, i32 noundef %1, ptr noundef nonnull %2)
  %20 = tail call i32 @pthread_mutex_unlock(ptr noundef nonnull align 8 dereferenceable(202) %.sink) #17
  br label %common.ret21
}